target datalayout = "e-m:e-p270:32:32-p271:32:32-p272:64:64-i64:64-i128:128-f80:128-n8:16:32:64-S128"
target triple = "x86_64-pc-linux-gnu"

%"class.std::__cxx11::basic_string" = type { %"struct.std::__cxx11::basic_string<char>::_Alloc_hider", i64, %union.anon }
%"struct.std::__cxx11::basic_string<char>::_Alloc_hider" = type { ptr }
%union.anon = type { i64, [8 x i8] }
%"class.std::basic_string_view" = type { i64, ptr }
%"class.absl::AlphaNum" = type { %"class.std::basic_string_view", [32 x i8] }
%"class.std::initializer_list" = type { ptr, i64 }

@.str = private unnamed_addr constant [3 x i8] c" (\00", align 1
@.str.1 = private unnamed_addr constant [6 x i8] c" vs. \00", align 1
@.str.2 = private unnamed_addr constant [2 x i8] c")\00", align 1

; Function Attrs: mustprogress nounwind uwtable
define linkonce_odr dso_local noundef i64 @_ZNSt11char_traitsIcE6lengthEPKc(ptr noundef %0) #3 comdat align 2 {
  %2 = alloca ptr, align 8
  store ptr %0, ptr %2, align 8, !tbaa !8
  %3 = load ptr, ptr %2, align 8, !tbaa !8
  %4 = call i64 @strlen(ptr noundef %3) #15
  ret i64 %4
}

; Function Attrs: mustprogress nounwind uwtable
define linkonce_odr dso_local void @_ZNSt17basic_string_viewIcSt11char_traitsIcEEC2Ev(ptr noundef nonnull align 8 dereferenceable(16) %0) unnamed_addr #3 comdat align 2 {
  %2 = alloca ptr, align 8
  store ptr %0, ptr %2, align 8, !tbaa !34
  %3 = load ptr, ptr %2, align 8
  %4 = getelementptr inbounds nuw %"class.std::basic_string_view", ptr %3, i32 0, i32 0
  store i64 0, ptr %4, align 8, !tbaa !55
  %5 = getelementptr inbounds nuw %"class.std::basic_string_view", ptr %3, i32 0, i32 1
  store ptr null, ptr %5, align 8, !tbaa !57
  ret void
}

; Function Attrs: mustprogress nounwind uwtable
define linkonce_odr dso_local void @_ZNSt17basic_string_viewIcSt11char_traitsIcEEC2EPKc(ptr noundef nonnull align 8 dereferenceable(16) %0, ptr noundef nonnull %1) unnamed_addr #3 comdat align 2 personality ptr @__gxx_personality_v0 {
  %3 = alloca ptr, align 8
  %4 = alloca ptr, align 8
  store ptr %0, ptr %3, align 8, !tbaa !34
  store ptr %1, ptr %4, align 8, !tbaa !8
  %5 = load ptr, ptr %3, align 8
  %6 = getelementptr inbounds nuw %"class.std::basic_string_view", ptr %5, i32 0, i32 0
  %7 = load ptr, ptr %4, align 8, !tbaa !8
  %8 = invoke noundef i64 @_ZNSt11char_traitsIcE6lengthEPKc(ptr noundef %7)
          to label %9 unwind label %12

9:                                                ; preds = %2
  store i64 %8, ptr %6, align 8, !tbaa !55
  %10 = getelementptr inbounds nuw %"class.std::basic_string_view", ptr %5, i32 0, i32 1
  %11 = load ptr, ptr %4, align 8, !tbaa !8
  store ptr %11, ptr %10, align 8, !tbaa !57
  ret void

12:                                               ; preds = %2
  %13 = landingpad { ptr, i32 }
          catch ptr null
  %14 = extractvalue { ptr, i32 } %13, 0
  call void @__clang_call_terminate(ptr %14) #18
  unreachable
}

; Function Attrs: noinline noreturn nounwind uwtable
define linkonce_odr hidden void @__clang_call_terminate(ptr noundef %0) #10 comdat {
  %2 = call ptr @__cxa_begin_catch(ptr %0) #15
  call void @_ZSt9terminatev() #18
  unreachable
}

; Function Attrs: mustprogress nounwind uwtable
define available_externally noundef ptr @_ZNKSt7__cxx1112basic_stringIcSt11char_traitsIcESaIcEE7_M_dataEv(ptr noundef nonnull align 8 dereferenceable(32) %0) #3 align 2 {
  %2 = alloca ptr, align 8
  store ptr %0, ptr %2, align 8, !tbaa !32
  %3 = load ptr, ptr %2, align 8
  %4 = getelementptr inbounds nuw %"class.std::__cxx11::basic_string", ptr %3, i32 0, i32 0
  %5 = getelementptr inbounds nuw %"struct.std::__cxx11::basic_string<char>::_Alloc_hider", ptr %4, i32 0, i32 0
  %6 = load ptr, ptr %5, align 8, !tbaa !58
  ret ptr %6
}

; Function Attrs: mustprogress nounwind uwtable
define linkonce_odr dso_local { i64, ptr } @_ZNK4absl8AlphaNum5PieceEv(ptr noundef nonnull align 8 dereferenceable(48) %0) #3 comdat align 2 {
  %2 = alloca %"class.std::basic_string_view", align 8
  %3 = alloca ptr, align 8
  store ptr %0, ptr %3, align 8, !tbaa !44
  %4 = load ptr, ptr %3, align 8
  %5 = getelementptr inbounds nuw %"class.absl::AlphaNum", ptr %4, i32 0, i32 0
  call void @llvm.memcpy.p0.p0.i64(ptr align 8 %2, ptr align 8 %5, i64 16, i1 false), !tbaa.struct !36
  %6 = load { i64, ptr }, ptr %2, align 8
  ret { i64, ptr } %6
}

; Function Attrs: mustprogress nounwind uwtable
define linkonce_odr dso_local { i64, ptr } @_ZN4absl18NullSafeStringViewEPKc(ptr noundef %0) #3 comdat {
  %2 = alloca %"class.std::basic_string_view", align 8
  %3 = alloca ptr, align 8
  store ptr %0, ptr %3, align 8, !tbaa !8
  %4 = load ptr, ptr %3, align 8, !tbaa !8
  %5 = icmp ne ptr %4, null
  br i1 %5, label %6, label %8

6:                                                ; preds = %1
  %7 = load ptr, ptr %3, align 8, !tbaa !8
  call void @_ZNSt17basic_string_viewIcSt11char_traitsIcEEC2EPKc(ptr noundef nonnull align 8 dereferenceable(16) %2, ptr noundef %7) #15
  br label %9

8:                                                ; preds = %1
  call void @_ZNSt17basic_string_viewIcSt11char_traitsIcEEC2Ev(ptr noundef nonnull align 8 dereferenceable(16) %2) #15
  br label %9

9:                                                ; preds = %8, %6
  %10 = load { i64, ptr }, ptr %2, align 8
  ret { i64, ptr } %10
}

; Function Attrs: mustprogress nounwind uwtable
define available_externally noundef ptr @_ZNKSt7__cxx1112basic_stringIcSt11char_traitsIcESaIcEE5c_strEv(ptr noundef nonnull align 8 dereferenceable(32) %0) #3 align 2 personality ptr @__gxx_personality_v0 {
  %2 = alloca ptr, align 8
  store ptr %0, ptr %2, align 8, !tbaa !32
  %3 = load ptr, ptr %2, align 8
  %4 = invoke noundef ptr @_ZNKSt7__cxx1112basic_stringIcSt11char_traitsIcESaIcEE7_M_dataEv(ptr noundef nonnull align 8 dereferenceable(32) %3)
          to label %5 unwind label %6

5:                                                ; preds = %1
  ret ptr %4

6:                                                ; preds = %1
  %7 = landingpad { ptr, i32 }
          catch ptr null
  %8 = extractvalue { ptr, i32 } %7, 0
  call void @__clang_call_terminate(ptr %8) #18
  unreachable
}

; Function Attrs: mustprogress uwtable
define linkonce_odr dso_local noundef ptr @_ZN4absl10IgnoreLeakINSt7__cxx1112basic_stringIcSt11char_traitsIcESaIcEEEEEPT_S8_(ptr noundef %0) #4 comdat {
  %2 = alloca ptr, align 8
  store ptr %0, ptr %2, align 8, !tbaa !32
  %3 = load ptr, ptr %2, align 8, !tbaa !32
  call void @_ZN4absl12DoIgnoreLeakEPKv(ptr noundef %3)
  %4 = load ptr, ptr %2, align 8, !tbaa !32
  ret ptr %4
}

; Function Attrs: inlinehint mustprogress uwtable
define linkonce_odr dso_local void @_ZN4absl6StrCatIJA2_cEEENSt7__cxx1112basic_stringIcSt11char_traitsIcESaIcEEERKNS_8AlphaNumESA_SA_SA_SA_DpRKT_(ptr dead_on_unwind noalias writable sret(%"class.std::__cxx11::basic_string") align 8 %0, ptr noundef nonnull align 8 dereferenceable(48) %1, ptr noundef nonnull align 8 dereferenceable(48) %2, ptr noundef nonnull align 8 dereferenceable(48) %3, ptr noundef nonnull align 8 dereferenceable(48) %4, ptr noundef nonnull align 8 dereferenceable(48) %5, ptr noundef nonnull align 1 dereferenceable(2) %6) #2 comdat {
  %8 = alloca ptr, align 8
  %9 = alloca ptr, align 8
  %10 = alloca ptr, align 8
  %11 = alloca ptr, align 8
  %12 = alloca ptr, align 8
  %13 = alloca ptr, align 8
  %14 = alloca ptr, align 8
  %15 = alloca %"class.std::initializer_list", align 8
  %16 = alloca [6 x %"class.std::basic_string_view"], align 8
  %17 = alloca %"class.absl::AlphaNum", align 8
  store ptr %0, ptr %8, align 8
  store ptr %1, ptr %9, align 8, !tbaa !44
  store ptr %2, ptr %10, align 8, !tbaa !44
  store ptr %3, ptr %11, align 8, !tbaa !44
  store ptr %4, ptr %12, align 8, !tbaa !44
  store ptr %5, ptr %13, align 8, !tbaa !44
  store ptr %6, ptr %14, align 8, !tbaa !8
  call void @llvm.lifetime.start.p0(i64 96, ptr %16) #15
  %18 = load ptr, ptr %9, align 8, !tbaa !44
  %19 = call { i64, ptr } @_ZNK4absl8AlphaNum5PieceEv(ptr noundef nonnull align 8 dereferenceable(48) %18)
  %20 = getelementptr inbounds nuw { i64, ptr }, ptr %16, i32 0, i32 0
  %21 = extractvalue { i64, ptr } %19, 0
  store i64 %21, ptr %20, align 8
  %22 = getelementptr inbounds nuw { i64, ptr }, ptr %16, i32 0, i32 1
  %23 = extractvalue { i64, ptr } %19, 1
  store ptr %23, ptr %22, align 8
  %24 = getelementptr inbounds %"class.std::basic_string_view", ptr %16, i64 1
  %25 = load ptr, ptr %10, align 8, !tbaa !44
  %26 = call { i64, ptr } @_ZNK4absl8AlphaNum5PieceEv(ptr noundef nonnull align 8 dereferenceable(48) %25)
  %27 = getelementptr inbounds nuw { i64, ptr }, ptr %24, i32 0, i32 0
  %28 = extractvalue { i64, ptr } %26, 0
  store i64 %28, ptr %27, align 8
  %29 = getelementptr inbounds nuw { i64, ptr }, ptr %24, i32 0, i32 1
  %30 = extractvalue { i64, ptr } %26, 1
  store ptr %30, ptr %29, align 8
  %31 = getelementptr inbounds %"class.std::basic_string_view", ptr %16, i64 2
  %32 = load ptr, ptr %11, align 8, !tbaa !44
  %33 = call { i64, ptr } @_ZNK4absl8AlphaNum5PieceEv(ptr noundef nonnull align 8 dereferenceable(48) %32)
  %34 = getelementptr inbounds nuw { i64, ptr }, ptr %31, i32 0, i32 0
  %35 = extractvalue { i64, ptr } %33, 0
  store i64 %35, ptr %34, align 8
  %36 = getelementptr inbounds nuw { i64, ptr }, ptr %31, i32 0, i32 1
  %37 = extractvalue { i64, ptr } %33, 1
  store ptr %37, ptr %36, align 8
  %38 = getelementptr inbounds %"class.std::basic_string_view", ptr %16, i64 3
  %39 = load ptr, ptr %12, align 8, !tbaa !44
  %40 = call { i64, ptr } @_ZNK4absl8AlphaNum5PieceEv(ptr noundef nonnull align 8 dereferenceable(48) %39)
  %41 = getelementptr inbounds nuw { i64, ptr }, ptr %38, i32 0, i32 0
  %42 = extractvalue { i64, ptr } %40, 0
  store i64 %42, ptr %41, align 8
  %43 = getelementptr inbounds nuw { i64, ptr }, ptr %38, i32 0, i32 1
  %44 = extractvalue { i64, ptr } %40, 1
  store ptr %44, ptr %43, align 8
  %45 = getelementptr inbounds %"class.std::basic_string_view", ptr %16, i64 4
  %46 = load ptr, ptr %13, align 8, !tbaa !44
  %47 = call { i64, ptr } @_ZNK4absl8AlphaNum5PieceEv(ptr noundef nonnull align 8 dereferenceable(48) %46)
  %48 = getelementptr inbounds nuw { i64, ptr }, ptr %45, i32 0, i32 0
  %49 = extractvalue { i64, ptr } %47, 0
  store i64 %49, ptr %48, align 8
  %50 = getelementptr inbounds nuw { i64, ptr }, ptr %45, i32 0, i32 1
  %51 = extractvalue { i64, ptr } %47, 1
  store ptr %51, ptr %50, align 8
  %52 = getelementptr inbounds %"class.std::basic_string_view", ptr %16, i64 5
  call void @llvm.lifetime.start.p0(i64 48, ptr %17) #15
  %53 = load ptr, ptr %14, align 8, !tbaa !8
  %54 = getelementptr inbounds [2 x i8], ptr %53, i64 0, i64 0
  call void @_ZN4absl8AlphaNumC2EPKc(ptr noundef nonnull align 8 dereferenceable(48) %17, ptr noundef %54)
  %55 = call { i64, ptr } @_ZNK4absl8AlphaNum5PieceEv(ptr noundef nonnull align 8 dereferenceable(48) %17)
  %56 = getelementptr inbounds nuw { i64, ptr }, ptr %52, i32 0, i32 0
  %57 = extractvalue { i64, ptr } %55, 0
  store i64 %57, ptr %56, align 8
  %58 = getelementptr inbounds nuw { i64, ptr }, ptr %52, i32 0, i32 1
  %59 = extractvalue { i64, ptr } %55, 1
  store ptr %59, ptr %58, align 8
  %60 = getelementptr inbounds nuw %"class.std::initializer_list", ptr %15, i32 0, i32 0
  store ptr %16, ptr %60, align 8, !tbaa !46
  %61 = getelementptr inbounds nuw %"class.std::initializer_list", ptr %15, i32 0, i32 1
  store i64 6, ptr %61, align 8, !tbaa !48
  %62 = getelementptr inbounds nuw { ptr, i64 }, ptr %15, i32 0, i32 0
  %63 = load ptr, ptr %62, align 8
  %64 = getelementptr inbounds nuw { ptr, i64 }, ptr %15, i32 0, i32 1
  %65 = load i64, ptr %64, align 8
  call void @_ZN4absl16strings_internal9CatPiecesB5cxx11ESt16initializer_listISt17basic_string_viewIcSt11char_traitsIcEEE(ptr dead_on_unwind writable sret(%"class.std::__cxx11::basic_string") align 8 %0, ptr %63, i64 %65)
  call void @llvm.lifetime.end.p0(i64 48, ptr %17) #15
  call void @llvm.lifetime.end.p0(i64 96, ptr %16) #15
  ret void
}

; Function Attrs: mustprogress uwtable
define linkonce_odr dso_local void @_ZN4absl8AlphaNumC2EPKc(ptr noundef nonnull align 8 dereferenceable(48) %0, ptr noundef %1) unnamed_addr #4 comdat align 2 {
  %3 = alloca ptr, align 8
  %4 = alloca ptr, align 8
  store ptr %0, ptr %3, align 8, !tbaa !44
  store ptr %1, ptr %4, align 8, !tbaa !8
  %5 = load ptr, ptr %3, align 8
  %6 = load ptr, ptr %4, align 8, !tbaa !8
  %7 = call { i64, ptr } @_ZN4absl18NullSafeStringViewEPKc(ptr noundef %6)
  %8 = getelementptr inbounds nuw { i64, ptr }, ptr %5, i32 0, i32 0
  %9 = extractvalue { i64, ptr } %7, 0
  store i64 %9, ptr %8, align 8
  %10 = getelementptr inbounds nuw { i64, ptr }, ptr %5, i32 0, i32 1
  %11 = extractvalue { i64, ptr } %7, 1
  store ptr %11, ptr %10, align 8
  ret void
}

; Function Attrs: mustprogress uwtable
define dso_local noundef ptr @_ZN4absl12log_internal24CheckstrcasecmpfalseImplEPKcS2_S2_(ptr noundef %0, ptr noundef %1, ptr noundef %2) #4 personality ptr @__gxx_personality_v0 {
  %4 = alloca ptr, align 8
  %5 = alloca ptr, align 8
  %6 = alloca ptr, align 8
  %7 = alloca ptr, align 8
  %8 = alloca i8, align 1
  %9 = alloca i32, align 4
  %10 = alloca %"class.absl::AlphaNum", align 8
  %11 = alloca ptr, align 8
  %12 = alloca i32, align 4
  %13 = alloca %"class.absl::AlphaNum", align 8
  %14 = alloca %"class.absl::AlphaNum", align 8
  %15 = alloca %"class.absl::AlphaNum", align 8
  %16 = alloca %"class.absl::AlphaNum", align 8
  %17 = alloca i1, align 1
  store ptr %0, ptr %5, align 8, !tbaa !8
  store ptr %1, ptr %6, align 8, !tbaa !8
  store ptr %2, ptr %7, align 8, !tbaa !8
  call void @llvm.lifetime.start.p0(i64 1, ptr %8) #15
  %18 = load ptr, ptr %5, align 8, !tbaa !8
  %19 = load ptr, ptr %6, align 8, !tbaa !8
  %20 = icmp eq ptr %18, %19
  br i1 %20, label %35, label %21

21:                                               ; preds = %3
  %22 = load ptr, ptr %5, align 8, !tbaa !8
  %23 = icmp ne ptr %22, null
  br i1 %23, label %24, label %33

24:                                               ; preds = %21
  %25 = load ptr, ptr %6, align 8, !tbaa !8
  %26 = icmp ne ptr %25, null
  br i1 %26, label %27, label %33

27:                                               ; preds = %24
  %28 = load ptr, ptr %5, align 8, !tbaa !8
  %29 = load ptr, ptr %6, align 8, !tbaa !8
  %30 = call i32 @strcasecmp(ptr noundef %28, ptr noundef %29) #19
  %31 = icmp ne i32 %30, 0
  %32 = xor i1 %31, true
  br label %33

33:                                               ; preds = %27, %24, %21
  %34 = phi i1 [ false, %24 ], [ false, %21 ], [ %32, %27 ]
  br label %35

35:                                               ; preds = %33, %3
  %36 = phi i1 [ true, %3 ], [ %34, %33 ]
  %37 = zext i1 %36 to i8
  store i8 %37, ptr %8, align 1, !tbaa !4
  %38 = load i8, ptr %8, align 1, !tbaa !4, !range !15, !noundef !16
  %39 = trunc i8 %38 to i1
  %40 = zext i1 %39 to i32
  %41 = icmp eq i32 %40, 0
  br i1 %41, label %42, label %43

42:                                               ; preds = %35
  store ptr null, ptr %4, align 8
  store i32 1, ptr %9, align 4
  br label %84

43:                                               ; preds = %35
  %44 = call noalias noundef nonnull ptr @_Znwm(i64 noundef 32) #16
  store i1 true, ptr %17, align 1
  call void @llvm.lifetime.start.p0(i64 48, ptr %10) #15
  %45 = load ptr, ptr %7, align 8, !tbaa !8
  invoke void @_ZN4absl8AlphaNumC2EPKc(ptr noundef nonnull align 8 dereferenceable(48) %10, ptr noundef %45)
          to label %46 unwind label %57

46:                                               ; preds = %43
  call void @llvm.lifetime.start.p0(i64 48, ptr %13) #15
  invoke void @_ZN4absl8AlphaNumC2EPKc(ptr noundef nonnull align 8 dereferenceable(48) %13, ptr noundef @.str)
          to label %47 unwind label %61

47:                                               ; preds = %46
  call void @llvm.lifetime.start.p0(i64 48, ptr %14) #15
  %48 = load ptr, ptr %5, align 8, !tbaa !8
  invoke void @_ZN4absl8AlphaNumC2EPKc(ptr noundef nonnull align 8 dereferenceable(48) %14, ptr noundef %48)
          to label %49 unwind label %65

49:                                               ; preds = %47
  call void @llvm.lifetime.start.p0(i64 48, ptr %15) #15
  invoke void @_ZN4absl8AlphaNumC2EPKc(ptr noundef nonnull align 8 dereferenceable(48) %15, ptr noundef @.str.1)
          to label %50 unwind label %69

50:                                               ; preds = %49
  call void @llvm.lifetime.start.p0(i64 48, ptr %16) #15
  %51 = load ptr, ptr %6, align 8, !tbaa !8
  invoke void @_ZN4absl8AlphaNumC2EPKc(ptr noundef nonnull align 8 dereferenceable(48) %16, ptr noundef %51)
          to label %52 unwind label %73

52:                                               ; preds = %50
  invoke void @_ZN4absl6StrCatIJA2_cEEENSt7__cxx1112basic_stringIcSt11char_traitsIcESaIcEEERKNS_8AlphaNumESA_SA_SA_SA_DpRKT_(ptr dead_on_unwind writable sret(%"class.std::__cxx11::basic_string") align 8 %44, ptr noundef nonnull align 8 dereferenceable(48) %10, ptr noundef nonnull align 8 dereferenceable(48) %13, ptr noundef nonnull align 8 dereferenceable(48) %14, ptr noundef nonnull align 8 dereferenceable(48) %15, ptr noundef nonnull align 8 dereferenceable(48) %16, ptr noundef nonnull align 1 dereferenceable(2) @.str.2)
          to label %53 unwind label %73

53:                                               ; preds = %52
  store i1 false, ptr %17, align 1
  %54 = invoke noundef ptr @_ZN4absl10IgnoreLeakINSt7__cxx1112basic_stringIcSt11char_traitsIcESaIcEEEEEPT_S8_(ptr noundef %44)
          to label %55 unwind label %73

55:                                               ; preds = %53
  %56 = call noundef ptr @_ZNKSt7__cxx1112basic_stringIcSt11char_traitsIcESaIcEE5c_strEv(ptr noundef nonnull align 8 dereferenceable(32) %54) #15
  store ptr %56, ptr %4, align 8
  call void @llvm.lifetime.end.p0(i64 48, ptr %16) #15
  call void @llvm.lifetime.end.p0(i64 48, ptr %15) #15
  call void @llvm.lifetime.end.p0(i64 48, ptr %14) #15
  call void @llvm.lifetime.end.p0(i64 48, ptr %13) #15
  call void @llvm.lifetime.end.p0(i64 48, ptr %10) #15
  store i32 1, ptr %9, align 4
  br label %84

57:                                               ; preds = %43
  %58 = landingpad { ptr, i32 }
          cleanup
  %59 = extractvalue { ptr, i32 } %58, 0
  store ptr %59, ptr %11, align 8
  %60 = extractvalue { ptr, i32 } %58, 1
  store i32 %60, ptr %12, align 4
  br label %80

61:                                               ; preds = %46
  %62 = landingpad { ptr, i32 }
          cleanup
  %63 = extractvalue { ptr, i32 } %62, 0
  store ptr %63, ptr %11, align 8
  %64 = extractvalue { ptr, i32 } %62, 1
  store i32 %64, ptr %12, align 4
  br label %79

65:                                               ; preds = %47
  %66 = landingpad { ptr, i32 }
          cleanup
  %67 = extractvalue { ptr, i32 } %66, 0
  store ptr %67, ptr %11, align 8
  %68 = extractvalue { ptr, i32 } %66, 1
  store i32 %68, ptr %12, align 4
  br label %78

69:                                               ; preds = %49
  %70 = landingpad { ptr, i32 }
          cleanup
  %71 = extractvalue { ptr, i32 } %70, 0
  store ptr %71, ptr %11, align 8
  %72 = extractvalue { ptr, i32 } %70, 1
  store i32 %72, ptr %12, align 4
  br label %77

73:                                               ; preds = %53, %52, %50
  %74 = landingpad { ptr, i32 }
          cleanup
  %75 = extractvalue { ptr, i32 } %74, 0
  store ptr %75, ptr %11, align 8
  %76 = extractvalue { ptr, i32 } %74, 1
  store i32 %76, ptr %12, align 4
  call void @llvm.lifetime.end.p0(i64 48, ptr %16) #15
  br label %77

77:                                               ; preds = %73, %69
  call void @llvm.lifetime.end.p0(i64 48, ptr %15) #15
  br label %78

78:                                               ; preds = %77, %65
  call void @llvm.lifetime.end.p0(i64 48, ptr %14) #15
  br label %79

79:                                               ; preds = %78, %61
  call void @llvm.lifetime.end.p0(i64 48, ptr %13) #15
  br label %80

80:                                               ; preds = %79, %57
  call void @llvm.lifetime.end.p0(i64 48, ptr %10) #15
  %81 = load i1, ptr %17, align 1
  br i1 %81, label %82, label %83

82:                                               ; preds = %80
  call void @_ZdlPvm(ptr noundef %44, i64 noundef 32) #17
  br label %83

83:                                               ; preds = %82, %80
  call void @llvm.lifetime.end.p0(i64 1, ptr %8) #15
  br label %86

84:                                               ; preds = %55, %42
  call void @llvm.lifetime.end.p0(i64 1, ptr %8) #15
  %85 = load ptr, ptr %4, align 8
  ret ptr %85

86:                                               ; preds = %83
  %87 = load ptr, ptr %11, align 8
  %88 = load i32, ptr %12, align 4
  %89 = insertvalue { ptr, i32 } poison, ptr %87, 0
  %90 = insertvalue { ptr, i32 } %89, i32 %88, 1
  resume { ptr, i32 } %90
}